; Function Attrs: mustprogress nofree norecurse nosync nounwind willreturn memory(argmem: read) uwtable
define dso_local { <2 x float>, <2 x float> } @_ZNK11btRigidBody15getLocalInertiaEv(ptr nocapture noundef nonnull readonly align 8 dereferenceable(744) %this) local_unnamed_addr #10 align 2 {
entry:
  %m_invInertiaLocal = getelementptr inbounds i8, ptr %this, i64 504
  %inertia.sroa.0.0.copyload = load float, ptr %m_invInertiaLocal, align 8
  %inertia.sroa.3.0.m_invInertiaLocal.sroa_idx = getelementptr inbounds i8, ptr %this, i64 508
  %cmp = fcmp une float %inertia.sroa.0.0.copyload, 0.000000e+00
  %div = fdiv float 1.000000e+00, %inertia.sroa.0.0.copyload
  %cond = select i1 %cmp, float %div, float 0.000000e+00
  %0 = load <2 x float>, ptr %inertia.sroa.3.0.m_invInertiaLocal.sroa_idx, align 4
  %1 = fcmp une <2 x float> %0, zeroinitializer
  %2 = fdiv <2 x float> <float 1.000000e+00, float 1.000000e+00>, %0
  %3 = select <2 x i1> %1, <2 x float> %2, <2 x float> zeroinitializer
  %retval.sroa.0.0.vec.insert = insertelement <2 x float> poison, float %cond, i64 0
  %4 = shufflevector <2 x float> %retval.sroa.0.0.vec.insert, <2 x float> %3, <2 x i32> <i32 0, i32 2>
  %5 = shufflevector <2 x float> <float poison, float 0.000000e+00>, <2 x float> %3, <2 x i32> <i32 3, i32 1>
  %.fca.0.insert = insertvalue { <2 x float>, <2 x float> } poison, <2 x float> %4, 0
  %.fca.1.insert = insertvalue { <2 x float>, <2 x float> } %.fca.0.insert, <2 x float> %5, 1
  ret { <2 x float>, <2 x float> } %.fca.1.insert
}